target datalayout = "e-m:e-p270:32:32-p271:32:32-p272:64:64-i64:64-i128:128-f80:128-n8:16:32:64-S128"
target triple = "x86_64-pc-linux-gnu"

@.str.2 = private unnamed_addr constant [36 x i8] c"../qemu/tests/qtest/libqos/libqos.c\00", align 1
@.str.20 = private unnamed_addr constant [2 x i8] c"w\00", align 1
@.str.21 = private unnamed_addr constant [16 x i8] c"[inject-error]\0A\00", align 1
@.str.22 = private unnamed_addr constant [14 x i8] c"event = \22%s\22\0A\00", align 1
@.str.23 = private unnamed_addr constant [13 x i8] c"errno = \225\22\0A\00", align 1
@.str.24 = private unnamed_addr constant [13 x i8] c"state = \221\22\0A\00", align 1
@.str.25 = private unnamed_addr constant [21 x i8] c"immediately = \22off\22\0A\00", align 1
@.str.26 = private unnamed_addr constant [13 x i8] c"once = \22on\22\0A\00", align 1
@.str.27 = private unnamed_addr constant [13 x i8] c"[set-state]\0A\00", align 1
@.str.28 = private unnamed_addr constant [17 x i8] c"new_state = \222\22\0A\00", align 1
@__func__.prepare_blkdebug_script = private unnamed_addr constant [24 x i8] c"prepare_blkdebug_script\00", align 1
@.str.29 = private unnamed_addr constant [20 x i8] c"!ferror(debug_file)\00", align 1
@.str.30 = private unnamed_addr constant [9 x i8] c"ret == 0\00", align 1

; Function Attrs: nounwind sspstrong uwtable
define dso_local void @prepare_blkdebug_script(ptr noundef %0, ptr noundef %1) #0 {
  %3 = alloca ptr, align 8
  %4 = alloca ptr, align 8
  %5 = alloca ptr, align 8
  %6 = alloca i32, align 4
  %7 = alloca i32, align 4
  %8 = alloca i32, align 4
  %9 = alloca i32, align 4
  %10 = alloca i32, align 4
  store ptr %0, ptr %3, align 8
  store ptr %1, ptr %4, align 8
  call void @llvm.lifetime.start.p0(i64 8, ptr %5) #14
  %11 = load ptr, ptr %3, align 8
  %12 = call noalias ptr @fopen64(ptr noundef %11, ptr noundef @.str.20)
  store ptr %12, ptr %5, align 8
  call void @llvm.lifetime.start.p0(i64 4, ptr %6) #14
  store i32 0, ptr %6, align 4, !annotation !4
  %13 = load ptr, ptr %5, align 8
  %14 = call i32 (ptr, i32, ptr, ...) @__fprintf_chk(ptr noundef %13, i32 noundef 1, ptr noundef @.str.21)
  %15 = load ptr, ptr %5, align 8
  %16 = load ptr, ptr %4, align 8
  %17 = call i32 (ptr, i32, ptr, ...) @__fprintf_chk(ptr noundef %15, i32 noundef 1, ptr noundef @.str.22, ptr noundef %16)
  %18 = load ptr, ptr %5, align 8
  %19 = call i32 (ptr, i32, ptr, ...) @__fprintf_chk(ptr noundef %18, i32 noundef 1, ptr noundef @.str.23)
  %20 = load ptr, ptr %5, align 8
  %21 = call i32 (ptr, i32, ptr, ...) @__fprintf_chk(ptr noundef %20, i32 noundef 1, ptr noundef @.str.24)
  %22 = load ptr, ptr %5, align 8
  %23 = call i32 (ptr, i32, ptr, ...) @__fprintf_chk(ptr noundef %22, i32 noundef 1, ptr noundef @.str.25)
  %24 = load ptr, ptr %5, align 8
  %25 = call i32 (ptr, i32, ptr, ...) @__fprintf_chk(ptr noundef %24, i32 noundef 1, ptr noundef @.str.26)
  %26 = load ptr, ptr %5, align 8
  %27 = call i32 (ptr, i32, ptr, ...) @__fprintf_chk(ptr noundef %26, i32 noundef 1, ptr noundef @.str.27)
  %28 = load ptr, ptr %5, align 8
  %29 = load ptr, ptr %4, align 8
  %30 = call i32 (ptr, i32, ptr, ...) @__fprintf_chk(ptr noundef %28, i32 noundef 1, ptr noundef @.str.22, ptr noundef %29)
  %31 = load ptr, ptr %5, align 8
  %32 = call i32 (ptr, i32, ptr, ...) @__fprintf_chk(ptr noundef %31, i32 noundef 1, ptr noundef @.str.28)
  %33 = load ptr, ptr %5, align 8
  %34 = call i32 @fflush(ptr noundef %33)
  br label %35

35:                                               ; preds = %2
  call void @llvm.lifetime.start.p0(i64 4, ptr %7) #14
  store i32 0, ptr %7, align 4, !annotation !4
  %36 = load ptr, ptr %5, align 8
  %37 = call i32 @ferror(ptr noundef %36) #14
  %38 = icmp ne i32 %37, 0
  br i1 %38, label %40, label %39

39:                                               ; preds = %35
  store i32 1, ptr %7, align 4
  br label %41

40:                                               ; preds = %35
  store i32 0, ptr %7, align 4
  br label %41

41:                                               ; preds = %40, %39
  %42 = load i32, ptr %7, align 4
  store i32 %42, ptr %8, align 4
  call void @llvm.lifetime.end.p0(i64 4, ptr %7) #14
  %43 = load i32, ptr %8, align 4
  %44 = sext i32 %43 to i64
  %45 = call i64 @llvm.expect.i64(i64 %44, i64 1)
  %46 = icmp ne i64 %45, 0
  br i1 %46, label %47, label %48

47:                                               ; preds = %41
  br label %49

48:                                               ; preds = %41
  call void @g_assertion_message_expr(ptr noundef null, ptr noundef @.str.2, i32 noundef 162, ptr noundef @__func__.prepare_blkdebug_script, ptr noundef @.str.29) #17
  unreachable

49:                                               ; preds = %47
  br label %50

50:                                               ; preds = %49
  br label %51

51:                                               ; preds = %50
  %52 = load ptr, ptr %5, align 8
  %53 = call i32 @fclose(ptr noundef %52)
  store i32 %53, ptr %6, align 4
  br label %54

54:                                               ; preds = %51
  call void @llvm.lifetime.start.p0(i64 4, ptr %9) #14
  store i32 0, ptr %9, align 4, !annotation !4
  %55 = load i32, ptr %6, align 4
  %56 = icmp eq i32 %55, 0
  br i1 %56, label %57, label %58

57:                                               ; preds = %54
  store i32 1, ptr %9, align 4
  br label %59

58:                                               ; preds = %54
  store i32 0, ptr %9, align 4
  br label %59

59:                                               ; preds = %58, %57
  %60 = load i32, ptr %9, align 4
  store i32 %60, ptr %10, align 4
  call void @llvm.lifetime.end.p0(i64 4, ptr %9) #14
  %61 = load i32, ptr %10, align 4
  %62 = sext i32 %61 to i64
  %63 = call i64 @llvm.expect.i64(i64 %62, i64 1)
  %64 = icmp ne i64 %63, 0
  br i1 %64, label %65, label %66

65:                                               ; preds = %59
  br label %67

66:                                               ; preds = %59
  call void @g_assertion_message_expr(ptr noundef null, ptr noundef @.str.2, i32 noundef 165, ptr noundef @__func__.prepare_blkdebug_script, ptr noundef @.str.30) #17
  unreachable

67:                                               ; preds = %65
  br label %68

68:                                               ; preds = %67
  br label %69

69:                                               ; preds = %68
  call void @llvm.lifetime.end.p0(i64 4, ptr %6) #14
  call void @llvm.lifetime.end.p0(i64 8, ptr %5) #14
  ret void
}