; Function Attrs: nounwind sspstrong uwtable
define dso_local void @prepare_blkdebug_script(ptr noundef readonly captures(none) %0, ptr noundef %1) local_unnamed_addr #0 {
  %3 = tail call noalias ptr @fopen64(ptr noundef %0, ptr noundef nonnull @.str.20)
  %4 = tail call i32 (ptr, i32, ptr, ...) @__fprintf_chk(ptr noundef %3, i32 noundef 1, ptr noundef nonnull @.str.21) #13
  %5 = tail call i32 (ptr, i32, ptr, ...) @__fprintf_chk(ptr noundef %3, i32 noundef 1, ptr noundef nonnull @.str.22, ptr noundef %1) #13
  %6 = tail call i32 (ptr, i32, ptr, ...) @__fprintf_chk(ptr noundef %3, i32 noundef 1, ptr noundef nonnull @.str.23) #13
  %7 = tail call i32 (ptr, i32, ptr, ...) @__fprintf_chk(ptr noundef %3, i32 noundef 1, ptr noundef nonnull @.str.24) #13
  %8 = tail call i32 (ptr, i32, ptr, ...) @__fprintf_chk(ptr noundef %3, i32 noundef 1, ptr noundef nonnull @.str.25) #13
  %9 = tail call i32 (ptr, i32, ptr, ...) @__fprintf_chk(ptr noundef %3, i32 noundef 1, ptr noundef nonnull @.str.26) #13
  %10 = tail call i32 (ptr, i32, ptr, ...) @__fprintf_chk(ptr noundef %3, i32 noundef 1, ptr noundef nonnull @.str.27) #13
  %11 = tail call i32 (ptr, i32, ptr, ...) @__fprintf_chk(ptr noundef %3, i32 noundef 1, ptr noundef nonnull @.str.22, ptr noundef %1) #13
  %12 = tail call i32 (ptr, i32, ptr, ...) @__fprintf_chk(ptr noundef %3, i32 noundef 1, ptr noundef nonnull @.str.28) #13
  %13 = tail call i32 @fflush(ptr noundef %3)
  %14 = tail call i32 @ferror(ptr noundef %3) #13
  %.not.not = icmp eq i32 %14, 0
  br i1 %.not.not, label %16, label %15, !prof !8

15:                                               ; preds = %2
  tail call void @g_assertion_message_expr(ptr noundef null, ptr noundef nonnull @.str.2, i32 noundef 162, ptr noundef nonnull @__func__.prepare_blkdebug_script, ptr noundef nonnull @.str.29) #14
  unreachable

16:                                               ; preds = %2
  %17 = tail call i32 @fclose(ptr noundef %3)
  %.not = icmp eq i32 %17, 0
  br i1 %.not, label %19, label %18, !prof !8

18:                                               ; preds = %16
  tail call void @g_assertion_message_expr(ptr noundef null, ptr noundef nonnull @.str.2, i32 noundef 165, ptr noundef nonnull @__func__.prepare_blkdebug_script, ptr noundef nonnull @.str.30) #14
  unreachable

19:                                               ; preds = %16
  ret void
}